ccopy_reg
_reconstructor
p0
(csklearn.feature_extraction.text
CountVectorizer
p1
c__builtin__
object
p2
Ntp3
Rp4
(dp5
S'binary'
p6
I00
sS'lowercase'
p7
I01
sS'stop_words'
p8
NsS'tokenizer'
p9
NsS'token_pattern'
p10
V(?u)\u005cb\u005cw\u005cw+\u005cb
p11
sS'charset_error'
p12
S'strict'
p13
sS'charset'
p14
S'utf-8'
p15
sS'fixed_vocabulary'
p16
I00
sS'analyzer'
p17
S'word'
p18
sS'vocabulary_'
p19
(dp20
Vclaim
p21
I1
sVyour
p22
I6
sVto
p23
I4
sVare
p24
I0
sVhave
p25
I3
sVyou
p26
I5
sVclick
p27
I2
ssS'ngram_range'
p28
(I1
I1
tp29
sS'preprocessor'
p30
NsS'min_df'
p31
I2
sS'max_features'
p32
NsS'input'
p33
S'content'
p34
sS'max_df'
p35
F1.0
sS'dtype'
p36
c__builtin__
long
p37
sS'stop_words_'
p38
c__builtin__
set
p39
((lp40
Vselected
p41
aV10000
p42
aVas
p43
aVat
p44
aVtomorrow
p45
aVrecharge
p46
aVnice
p47
aVwinner
p48
aVbeen
p49
aVday
p50
aVhow
p51
aVwon
p52
aVpm
p53
aVavailable
p54
aVgood
p55
aVhere
p56
aVlet
p57
aVfree
p58
aVcoming
p59
aVimmediately
p60
aVnow
p61
aVclass
p62
aVcongratulations
p63
aVprize
p64
aVsee
p65
aVmorning
p66
aVrupees
p67
aVmeet
p68
aVreward
p69
aVhello
p70
atp71
Rp72
sS'strip_accents'
p73
Nsb.